; Function Attrs: nounwind sspstrong uwtable
define internal i64 @proc_setproctitle(i64 %0, i64 noundef %1) #0 {
  %3 = alloca i64, align 8
  call void @llvm.lifetime.start.p0(i64 8, ptr nonnull %3)
  store i64 %1, ptr %3, align 8, !tbaa !47
  %4 = call ptr @rb_string_value_cstr(ptr noundef nonnull %3) #25
  %5 = load i64, ptr %3, align 8, !tbaa !47
  %6 = inttoptr i64 %5 to ptr
  %7 = getelementptr inbounds nuw i8, ptr %6, i64 16
  %8 = load i64, ptr %7, align 8, !tbaa !68
  %9 = add i64 %8, 2147483648
  %.not.i.i.i = icmp ult i64 %9, 4294967296
  br i1 %.not.i.i.i, label %ruby_setproctitle.exit, label %10

10:                                               ; preds = %2
  call void @rb_out_of_int(i64 noundef %8) #27
  unreachable

ruby_setproctitle.exit:                           ; preds = %2
  %11 = trunc i64 %8 to i32
  call void (ptr, ...) @setproctitle(ptr noundef nonnull @.str.139, i32 noundef %11, ptr noundef %4) #25
  %12 = load i64, ptr %3, align 8, !tbaa !47
  call void @llvm.lifetime.end.p0(i64 8, ptr nonnull %3)
  ret i64 %12
}